; Function Attrs: mustprogress nounwind uwtable
define hidden void @_ZN14ShenandoahHeap22update_heap_referencesEb(ptr noundef nonnull align 8 dereferenceable(2657) %0, i1 noundef zeroext %1) local_unnamed_addr #1 align 2 {
  %3 = alloca %class.ShenandoahUpdateHeapRefsTask, align 8
  %4 = alloca %class.ShenandoahUpdateHeapRefsTask.20, align 8
  br i1 %1, label %5, label %9

5:                                                ; preds = %2
  %.sink.sroa.gep7 = getelementptr inbounds i8, ptr %3, i64 32
  %.sink.sroa.gep4 = getelementptr inbounds i8, ptr %3, i64 24
  %6 = getelementptr inbounds i8, ptr %3, i64 8
  store ptr @.str.126, ptr %6, align 8
  %7 = getelementptr inbounds i8, ptr %3, i64 16
  %8 = tail call noundef i32 @_ZN4GCId20current_or_undefinedEv() #26
  store i32 %8, ptr %7, align 8
  store ptr getelementptr inbounds inrange(-16, 8) (i8, ptr @_ZTV28ShenandoahUpdateHeapRefsTaskILb1EE, i64 16), ptr %3, align 8
  br label %13

9:                                                ; preds = %2
  %.sink.sroa.gep6 = getelementptr inbounds i8, ptr %4, i64 32
  %.sink.sroa.gep = getelementptr inbounds i8, ptr %4, i64 24
  %10 = getelementptr inbounds i8, ptr %4, i64 8
  store ptr @.str.126, ptr %10, align 8
  %11 = getelementptr inbounds i8, ptr %4, i64 16
  %12 = tail call noundef i32 @_ZN4GCId20current_or_undefinedEv() #26
  store i32 %12, ptr %11, align 8
  store ptr getelementptr inbounds inrange(-16, 8) (i8, ptr @_ZTV28ShenandoahUpdateHeapRefsTaskILb0EE, i64 16), ptr %4, align 8
  br label %13

13:                                               ; preds = %9, %5
  %.sink.sroa.phi = phi ptr [ %.sink.sroa.gep, %9 ], [ %.sink.sroa.gep4, %5 ]
  %.sink.sroa.phi5 = phi ptr [ %.sink.sroa.gep6, %9 ], [ %.sink.sroa.gep7, %5 ]
  %.sink = phi ptr [ %4, %9 ], [ %3, %5 ]
  %14 = getelementptr inbounds i8, ptr %0, i64 504
  %15 = getelementptr inbounds i8, ptr %0, i64 560
  %16 = load ptr, ptr @_ZN8Universe14_collectedHeapE, align 8
  store ptr %16, ptr %.sink.sroa.phi, align 8
  store ptr %15, ptr %.sink.sroa.phi5, align 8
  %17 = load ptr, ptr %14, align 8
  call void @_ZN13WorkerThreads8run_taskEP10WorkerTask(ptr noundef nonnull align 8 dereferenceable(120) %17, ptr noundef nonnull %.sink) #26
  ret void
}